(i__main__
Tileset
p0
(dp1
S'tiles_per_row'
p2
I8
sS'name'
p3
S'tileset'
p4
sS'tilesize'
p5
(I64
I64
tp6
sS'image'
p7
NsS'number'
p8
I80
sS'filename'
p9
S'tileset.png'
p10
sS'type'
p11
S'bloc'
p12
sb.